target datalayout = "e-m:e-p270:32:32-p271:32:32-p272:64:64-i64:64-i128:128-f80:128-n8:16:32:64-S128"
target triple = "x86_64-pc-linux-gnu"

%"struct.faiss::BinaryInvertedListScanner" = type { ptr }
%"struct.faiss::(anonymous namespace)::IVFBinaryScannerL2.59" = type { %"struct.faiss::BinaryInvertedListScanner", %"struct.faiss::HammingComputer16", i64, i8, i64 }
%"struct.faiss::HammingComputer16" = type { i64, i64 }

; Function Attrs: mustprogress nounwind uwtable
define linkonce_odr void @_ZN5faiss17HammingComputer163setEPKhi(ptr noundef nonnull align 8 dereferenceable(16) %0, ptr noundef %1, i32 noundef %2) #0 comdat align 2 {
  %4 = alloca ptr, align 8
  %5 = alloca ptr, align 8
  %6 = alloca i32, align 4
  %7 = alloca ptr, align 8
  store ptr %0, ptr %4, align 8
  store ptr %1, ptr %5, align 8
  store i32 %2, ptr %6, align 4
  %8 = load ptr, ptr %4, align 8
  %9 = load ptr, ptr %5, align 8
  store ptr %9, ptr %7, align 8
  %10 = load ptr, ptr %7, align 8
  %11 = getelementptr inbounds i64, ptr %10, i64 0
  %12 = load i64, ptr %11, align 8
  %13 = getelementptr inbounds %"struct.faiss::HammingComputer16", ptr %8, i32 0, i32 0
  store i64 %12, ptr %13, align 8
  %14 = load ptr, ptr %7, align 8
  %15 = getelementptr inbounds i64, ptr %14, i64 1
  %16 = load i64, ptr %15, align 8
  %17 = getelementptr inbounds %"struct.faiss::HammingComputer16", ptr %8, i32 0, i32 1
  store i64 %16, ptr %17, align 8
  ret void
}

; Function Attrs: mustprogress uwtable
define internal void @_ZN5faiss12_GLOBAL__N_118IVFBinaryScannerL2INS_17HammingComputer16EE9set_queryEPKh(ptr noundef nonnull align 8 dereferenceable(48) %0, ptr noundef %1) unnamed_addr #1 align 2 {
  %3 = alloca ptr, align 8
  %4 = alloca ptr, align 8
  store ptr %0, ptr %3, align 8
  store ptr %1, ptr %4, align 8
  %5 = load ptr, ptr %3, align 8
  %6 = getelementptr inbounds %"struct.faiss::(anonymous namespace)::IVFBinaryScannerL2.59", ptr %5, i32 0, i32 1
  %7 = load ptr, ptr %4, align 8
  %8 = getelementptr inbounds %"struct.faiss::(anonymous namespace)::IVFBinaryScannerL2.59", ptr %5, i32 0, i32 2
  %9 = load i64, ptr %8, align 8
  %10 = trunc i64 %9 to i32
  call void @_ZN5faiss17HammingComputer163setEPKhi(ptr noundef nonnull align 8 dereferenceable(16) %6, ptr noundef %7, i32 noundef %10)
  ret void
}